target datalayout = "e-m:e-p270:32:32-p271:32:32-p272:64:64-i64:64-i128:128-f80:128-n8:16:32:64-S128"
target triple = "x86_64-pc-linux-gnu"

%struct.block_tq1_0 = type { [48 x i8], [4 x i8], i16 }

@__const.dequantize_row_tq1_0.pow3 = private unnamed_addr constant [6 x i8] c"\01\03\09\1BQ\F3", align 1
@ggml_table_f32_f16 = external global [65536 x float], align 16

; Function Attrs: inlinehint nounwind uwtable
define internal float @ggml_lookup_fp16_to_fp32(i16 noundef zeroext %0) #3 {
  %2 = alloca i16, align 2
  %3 = alloca i16, align 2
  store i16 %0, ptr %2, align 2, !tbaa !42
  call void @llvm.lifetime.start.p0(i64 2, ptr %3) #10
  call void @llvm.memcpy.p0.p0.i64(ptr align 2 %3, ptr align 2 %2, i64 2, i1 false)
  %4 = load i16, ptr %3, align 2, !tbaa !42
  %5 = zext i16 %4 to i64
  %6 = getelementptr inbounds nuw [65536 x float], ptr @ggml_table_f32_f16, i64 0, i64 %5
  %7 = load float, ptr %6, align 4, !tbaa !13
  call void @llvm.lifetime.end.p0(i64 2, ptr %3) #10
  ret float %7
}

; Function Attrs: nounwind uwtable
define void @dequantize_row_tq1_0(ptr noalias noundef %0, ptr noalias noundef %1, i64 noundef %2) #0 {
  %4 = alloca ptr, align 8
  %5 = alloca ptr, align 8
  %6 = alloca i64, align 8
  %7 = alloca i64, align 8
  %8 = alloca [6 x i8], align 1
  %9 = alloca i64, align 8
  %10 = alloca i32, align 4
  %11 = alloca float, align 4
  %12 = alloca i64, align 8
  %13 = alloca i64, align 8
  %14 = alloca i64, align 8
  %15 = alloca i8, align 1
  %16 = alloca i16, align 2
  %17 = alloca i64, align 8
  %18 = alloca i64, align 8
  %19 = alloca i64, align 8
  %20 = alloca i8, align 1
  %21 = alloca i16, align 2
  %22 = alloca i64, align 8
  %23 = alloca i64, align 8
  %24 = alloca i8, align 1
  %25 = alloca i16, align 2
  store ptr %0, ptr %4, align 8, !tbaa !8
  store ptr %1, ptr %5, align 8, !tbaa !3
  store i64 %2, ptr %6, align 8, !tbaa !9
  call void @llvm.lifetime.start.p0(i64 8, ptr %7) #10
  %26 = load i64, ptr %6, align 8, !tbaa !9
  %27 = sdiv i64 %26, 256
  store i64 %27, ptr %7, align 8, !tbaa !9
  call void @llvm.lifetime.start.p0(i64 6, ptr %8) #10
  call void @llvm.memcpy.p0.p0.i64(ptr align 1 %8, ptr align 1 @__const.dequantize_row_tq1_0.pow3, i64 6, i1 false)
  call void @llvm.lifetime.start.p0(i64 8, ptr %9) #10
  store i64 0, ptr %9, align 8, !tbaa !9
  br label %28

28:                                               ; preds = %200, %3
  %29 = load i64, ptr %9, align 8, !tbaa !9
  %30 = load i64, ptr %7, align 8, !tbaa !9
  %31 = icmp slt i64 %29, %30
  br i1 %31, label %33, label %32

32:                                               ; preds = %28
  store i32 2, ptr %10, align 4
  call void @llvm.lifetime.end.p0(i64 8, ptr %9) #10
  br label %203

33:                                               ; preds = %28
  call void @llvm.lifetime.start.p0(i64 4, ptr %11) #10
  %34 = load ptr, ptr %4, align 8, !tbaa !8
  %35 = load i64, ptr %9, align 8, !tbaa !9
  %36 = getelementptr inbounds %struct.block_tq1_0, ptr %34, i64 %35
  %37 = getelementptr inbounds nuw %struct.block_tq1_0, ptr %36, i32 0, i32 2
  %38 = load i16, ptr %37, align 2, !tbaa !223
  %39 = call float @ggml_lookup_fp16_to_fp32(i16 noundef zeroext %38)
  store float %39, ptr %11, align 4, !tbaa !13
  call void @llvm.lifetime.start.p0(i64 8, ptr %12) #10
  store i64 0, ptr %12, align 8, !tbaa !9
  br label %40

40:                                               ; preds = %93, %33
  %41 = load i64, ptr %12, align 8, !tbaa !9
  %42 = icmp ult i64 %41, 32
  br i1 %42, label %44, label %43

43:                                               ; preds = %40
  store i32 5, ptr %10, align 4
  call void @llvm.lifetime.end.p0(i64 8, ptr %12) #10
  br label %96

44:                                               ; preds = %40
  call void @llvm.lifetime.start.p0(i64 8, ptr %13) #10
  store i64 0, ptr %13, align 8, !tbaa !9
  br label %45

45:                                               ; preds = %89, %44
  %46 = load i64, ptr %13, align 8, !tbaa !9
  %47 = icmp ult i64 %46, 5
  br i1 %47, label %49, label %48

48:                                               ; preds = %45
  store i32 8, ptr %10, align 4
  call void @llvm.lifetime.end.p0(i64 8, ptr %13) #10
  br label %92

49:                                               ; preds = %45
  call void @llvm.lifetime.start.p0(i64 8, ptr %14) #10
  store i64 0, ptr %14, align 8, !tbaa !9
  br label %50

50:                                               ; preds = %85, %49
  %51 = load i64, ptr %14, align 8, !tbaa !9
  %52 = icmp ult i64 %51, 32
  br i1 %52, label %54, label %53

53:                                               ; preds = %50
  store i32 11, ptr %10, align 4
  call void @llvm.lifetime.end.p0(i64 8, ptr %14) #10
  br label %88

54:                                               ; preds = %50
  call void @llvm.lifetime.start.p0(i64 1, ptr %15) #10
  %55 = load ptr, ptr %4, align 8, !tbaa !8
  %56 = load i64, ptr %9, align 8, !tbaa !9
  %57 = getelementptr inbounds %struct.block_tq1_0, ptr %55, i64 %56
  %58 = getelementptr inbounds nuw %struct.block_tq1_0, ptr %57, i32 0, i32 0
  %59 = load i64, ptr %12, align 8, !tbaa !9
  %60 = load i64, ptr %14, align 8, !tbaa !9
  %61 = add i64 %59, %60
  %62 = getelementptr inbounds nuw [48 x i8], ptr %58, i64 0, i64 %61
  %63 = load i8, ptr %62, align 1, !tbaa !20
  %64 = zext i8 %63 to i32
  %65 = load i64, ptr %13, align 8, !tbaa !9
  %66 = getelementptr inbounds nuw [6 x i8], ptr %8, i64 0, i64 %65
  %67 = load i8, ptr %66, align 1, !tbaa !20
  %68 = zext i8 %67 to i32
  %69 = mul nsw i32 %64, %68
  %70 = trunc i32 %69 to i8
  store i8 %70, ptr %15, align 1, !tbaa !20
  call void @llvm.lifetime.start.p0(i64 2, ptr %16) #10
  %71 = load i8, ptr %15, align 1, !tbaa !20
  %72 = zext i8 %71 to i16
  %73 = zext i16 %72 to i32
  %74 = mul nsw i32 %73, 3
  %75 = ashr i32 %74, 8
  %76 = trunc i32 %75 to i16
  store i16 %76, ptr %16, align 2, !tbaa !42
  %77 = load i16, ptr %16, align 2, !tbaa !42
  %78 = sext i16 %77 to i32
  %79 = sub nsw i32 %78, 1
  %80 = sitofp i32 %79 to float
  %81 = load float, ptr %11, align 4, !tbaa !13
  %82 = fmul float %80, %81
  %83 = load ptr, ptr %5, align 8, !tbaa !3
  %84 = getelementptr inbounds nuw float, ptr %83, i32 1
  store ptr %84, ptr %5, align 8, !tbaa !3
  store float %82, ptr %83, align 4, !tbaa !13
  call void @llvm.lifetime.end.p0(i64 2, ptr %16) #10
  call void @llvm.lifetime.end.p0(i64 1, ptr %15) #10
  br label %85

85:                                               ; preds = %54
  %86 = load i64, ptr %14, align 8, !tbaa !9
  %87 = add i64 %86, 1
  store i64 %87, ptr %14, align 8, !tbaa !9
  br label %50, !llvm.loop !241

88:                                               ; preds = %53
  br label %89

89:                                               ; preds = %88
  %90 = load i64, ptr %13, align 8, !tbaa !9
  %91 = add i64 %90, 1
  store i64 %91, ptr %13, align 8, !tbaa !9
  br label %45, !llvm.loop !242

92:                                               ; preds = %48
  br label %93

93:                                               ; preds = %92
  %94 = load i64, ptr %12, align 8, !tbaa !9
  %95 = add i64 %94, 32
  store i64 %95, ptr %12, align 8, !tbaa !9
  br label %40, !llvm.loop !243

96:                                               ; preds = %43
  call void @llvm.lifetime.start.p0(i64 8, ptr %17) #10
  store i64 32, ptr %17, align 8, !tbaa !9
  br label %97

97:                                               ; preds = %150, %96
  %98 = load i64, ptr %17, align 8, !tbaa !9
  %99 = icmp ult i64 %98, 48
  br i1 %99, label %101, label %100

100:                                              ; preds = %97
  store i32 14, ptr %10, align 4
  call void @llvm.lifetime.end.p0(i64 8, ptr %17) #10
  br label %153

101:                                              ; preds = %97
  call void @llvm.lifetime.start.p0(i64 8, ptr %18) #10
  store i64 0, ptr %18, align 8, !tbaa !9
  br label %102

102:                                              ; preds = %146, %101
  %103 = load i64, ptr %18, align 8, !tbaa !9
  %104 = icmp ult i64 %103, 5
  br i1 %104, label %106, label %105

105:                                              ; preds = %102
  store i32 17, ptr %10, align 4
  call void @llvm.lifetime.end.p0(i64 8, ptr %18) #10
  br label %149

106:                                              ; preds = %102
  call void @llvm.lifetime.start.p0(i64 8, ptr %19) #10
  store i64 0, ptr %19, align 8, !tbaa !9
  br label %107

107:                                              ; preds = %142, %106
  %108 = load i64, ptr %19, align 8, !tbaa !9
  %109 = icmp ult i64 %108, 16
  br i1 %109, label %111, label %110

110:                                              ; preds = %107
  store i32 20, ptr %10, align 4
  call void @llvm.lifetime.end.p0(i64 8, ptr %19) #10
  br label %145

111:                                              ; preds = %107
  call void @llvm.lifetime.start.p0(i64 1, ptr %20) #10
  %112 = load ptr, ptr %4, align 8, !tbaa !8
  %113 = load i64, ptr %9, align 8, !tbaa !9
  %114 = getelementptr inbounds %struct.block_tq1_0, ptr %112, i64 %113
  %115 = getelementptr inbounds nuw %struct.block_tq1_0, ptr %114, i32 0, i32 0
  %116 = load i64, ptr %17, align 8, !tbaa !9
  %117 = load i64, ptr %19, align 8, !tbaa !9
  %118 = add i64 %116, %117
  %119 = getelementptr inbounds nuw [48 x i8], ptr %115, i64 0, i64 %118
  %120 = load i8, ptr %119, align 1, !tbaa !20
  %121 = zext i8 %120 to i32
  %122 = load i64, ptr %18, align 8, !tbaa !9
  %123 = getelementptr inbounds nuw [6 x i8], ptr %8, i64 0, i64 %122
  %124 = load i8, ptr %123, align 1, !tbaa !20
  %125 = zext i8 %124 to i32
  %126 = mul nsw i32 %121, %125
  %127 = trunc i32 %126 to i8
  store i8 %127, ptr %20, align 1, !tbaa !20
  call void @llvm.lifetime.start.p0(i64 2, ptr %21) #10
  %128 = load i8, ptr %20, align 1, !tbaa !20
  %129 = zext i8 %128 to i16
  %130 = zext i16 %129 to i32
  %131 = mul nsw i32 %130, 3
  %132 = ashr i32 %131, 8
  %133 = trunc i32 %132 to i16
  store i16 %133, ptr %21, align 2, !tbaa !42
  %134 = load i16, ptr %21, align 2, !tbaa !42
  %135 = sext i16 %134 to i32
  %136 = sub nsw i32 %135, 1
  %137 = sitofp i32 %136 to float
  %138 = load float, ptr %11, align 4, !tbaa !13
  %139 = fmul float %137, %138
  %140 = load ptr, ptr %5, align 8, !tbaa !3
  %141 = getelementptr inbounds nuw float, ptr %140, i32 1
  store ptr %141, ptr %5, align 8, !tbaa !3
  store float %139, ptr %140, align 4, !tbaa !13
  call void @llvm.lifetime.end.p0(i64 2, ptr %21) #10
  call void @llvm.lifetime.end.p0(i64 1, ptr %20) #10
  br label %142

142:                                              ; preds = %111
  %143 = load i64, ptr %19, align 8, !tbaa !9
  %144 = add i64 %143, 1
  store i64 %144, ptr %19, align 8, !tbaa !9
  br label %107, !llvm.loop !244

145:                                              ; preds = %110
  br label %146

146:                                              ; preds = %145
  %147 = load i64, ptr %18, align 8, !tbaa !9
  %148 = add i64 %147, 1
  store i64 %148, ptr %18, align 8, !tbaa !9
  br label %102, !llvm.loop !245

149:                                              ; preds = %105
  br label %150

150:                                              ; preds = %149
  %151 = load i64, ptr %17, align 8, !tbaa !9
  %152 = add i64 %151, 16
  store i64 %152, ptr %17, align 8, !tbaa !9
  br label %97, !llvm.loop !246

153:                                              ; preds = %100
  call void @llvm.lifetime.start.p0(i64 8, ptr %22) #10
  store i64 0, ptr %22, align 8, !tbaa !9
  br label %154

154:                                              ; preds = %196, %153
  %155 = load i64, ptr %22, align 8, !tbaa !9
  %156 = icmp ult i64 %155, 4
  br i1 %156, label %158, label %157

157:                                              ; preds = %154
  store i32 23, ptr %10, align 4
  call void @llvm.lifetime.end.p0(i64 8, ptr %22) #10
  br label %199

158:                                              ; preds = %154
  call void @llvm.lifetime.start.p0(i64 8, ptr %23) #10
  store i64 0, ptr %23, align 8, !tbaa !9
  br label %159

159:                                              ; preds = %192, %158
  %160 = load i64, ptr %23, align 8, !tbaa !9
  %161 = icmp ult i64 %160, 4
  br i1 %161, label %163, label %162

162:                                              ; preds = %159
  store i32 26, ptr %10, align 4
  call void @llvm.lifetime.end.p0(i64 8, ptr %23) #10
  br label %195

163:                                              ; preds = %159
  call void @llvm.lifetime.start.p0(i64 1, ptr %24) #10
  %164 = load ptr, ptr %4, align 8, !tbaa !8
  %165 = load i64, ptr %9, align 8, !tbaa !9
  %166 = getelementptr inbounds %struct.block_tq1_0, ptr %164, i64 %165
  %167 = getelementptr inbounds nuw %struct.block_tq1_0, ptr %166, i32 0, i32 1
  %168 = load i64, ptr %23, align 8, !tbaa !9
  %169 = getelementptr inbounds nuw [4 x i8], ptr %167, i64 0, i64 %168
  %170 = load i8, ptr %169, align 1, !tbaa !20
  %171 = zext i8 %170 to i32
  %172 = load i64, ptr %22, align 8, !tbaa !9
  %173 = getelementptr inbounds nuw [6 x i8], ptr %8, i64 0, i64 %172
  %174 = load i8, ptr %173, align 1, !tbaa !20
  %175 = zext i8 %174 to i32
  %176 = mul nsw i32 %171, %175
  %177 = trunc i32 %176 to i8
  store i8 %177, ptr %24, align 1, !tbaa !20
  call void @llvm.lifetime.start.p0(i64 2, ptr %25) #10
  %178 = load i8, ptr %24, align 1, !tbaa !20
  %179 = zext i8 %178 to i16
  %180 = zext i16 %179 to i32
  %181 = mul nsw i32 %180, 3
  %182 = ashr i32 %181, 8
  %183 = trunc i32 %182 to i16
  store i16 %183, ptr %25, align 2, !tbaa !42
  %184 = load i16, ptr %25, align 2, !tbaa !42
  %185 = sext i16 %184 to i32
  %186 = sub nsw i32 %185, 1
  %187 = sitofp i32 %186 to float
  %188 = load float, ptr %11, align 4, !tbaa !13
  %189 = fmul float %187, %188
  %190 = load ptr, ptr %5, align 8, !tbaa !3
  %191 = getelementptr inbounds nuw float, ptr %190, i32 1
  store ptr %191, ptr %5, align 8, !tbaa !3
  store float %189, ptr %190, align 4, !tbaa !13
  call void @llvm.lifetime.end.p0(i64 2, ptr %25) #10
  call void @llvm.lifetime.end.p0(i64 1, ptr %24) #10
  br label %192

192:                                              ; preds = %163
  %193 = load i64, ptr %23, align 8, !tbaa !9
  %194 = add i64 %193, 1
  store i64 %194, ptr %23, align 8, !tbaa !9
  br label %159, !llvm.loop !247

195:                                              ; preds = %162
  br label %196

196:                                              ; preds = %195
  %197 = load i64, ptr %22, align 8, !tbaa !9
  %198 = add i64 %197, 1
  store i64 %198, ptr %22, align 8, !tbaa !9
  br label %154, !llvm.loop !248

199:                                              ; preds = %157
  call void @llvm.lifetime.end.p0(i64 4, ptr %11) #10
  br label %200

200:                                              ; preds = %199
  %201 = load i64, ptr %9, align 8, !tbaa !9
  %202 = add nsw i64 %201, 1
  store i64 %202, ptr %9, align 8, !tbaa !9
  br label %28, !llvm.loop !249

203:                                              ; preds = %32
  call void @llvm.lifetime.end.p0(i64 6, ptr %8) #10
  call void @llvm.lifetime.end.p0(i64 8, ptr %7) #10
  ret void
}