; Function Attrs: nofree norecurse nosync nounwind memory(readwrite, inaccessiblemem: none) uwtable
define void @dequantize_row_tq1_0(ptr noalias noundef readonly captures(none) %0, ptr noalias noundef writeonly captures(none) %1, i64 noundef %2) local_unnamed_addr #12 {
  %4 = sdiv i64 %2, 256
  %5 = icmp sgt i64 %2, 255
  br i1 %5, label %.lr.ph, label %._crit_edge

._crit_edge:                                      ; preds = %48, %3
  ret void

.lr.ph:                                           ; preds = %3, %48
  %.078 = phi ptr [ %62, %48 ], [ %1, %3 ]
  %.04777 = phi i64 [ %49, %48 ], [ 0, %3 ]
  %6 = getelementptr inbounds nuw %struct.block_tq1_0, ptr %0, i64 %.04777
  %7 = getelementptr inbounds nuw i8, ptr %6, i64 52
  %8 = load i16, ptr %7, align 2, !tbaa !593
  %9 = zext i16 %8 to i64
  %10 = getelementptr inbounds nuw [65536 x float], ptr @ggml_table_f32_f16, i64 0, i64 %9
  %11 = load float, ptr %10, align 4, !tbaa !8
  br label %.preheader56

.preheader56:                                     ; preds = %.lr.ph, %14
  %.265 = phi ptr [ %.078, %.lr.ph ], [ %26, %14 ]
  %.05464 = phi i64 [ 0, %.lr.ph ], [ %15, %14 ]
  %12 = getelementptr inbounds nuw [6 x i8], ptr @__const.dequantize_row_tq1_0.pow3, i64 0, i64 %.05464
  %13 = load i8, ptr %12, align 1, !tbaa !13
  br label %16

14:                                               ; preds = %16
  %15 = add nuw nsw i64 %.05464, 1
  %exitcond81.not = icmp eq i64 %15, 5
  br i1 %exitcond81.not, label %.preheader, label %.preheader56, !llvm.loop !616

16:                                               ; preds = %.preheader56, %16
  %.363 = phi ptr [ %.265, %.preheader56 ], [ %26, %16 ]
  %.05562 = phi i64 [ 0, %.preheader56 ], [ %27, %16 ]
  %17 = getelementptr inbounds nuw [48 x i8], ptr %6, i64 0, i64 %.05562
  %18 = load i8, ptr %17, align 1, !tbaa !13
  %19 = mul i8 %13, %18
  %20 = zext i8 %19 to i32
  %21 = mul nuw nsw i32 %20, 3
  %22 = lshr i32 %21, 8
  %23 = add nsw i32 %22, -1
  %24 = sitofp i32 %23 to float
  %25 = fmul float %11, %24
  %26 = getelementptr inbounds nuw i8, ptr %.363, i64 4
  store float %25, ptr %.363, align 4, !tbaa !8
  %27 = add nuw nsw i64 %.05562, 1
  %exitcond.not = icmp eq i64 %27, 32
  br i1 %exitcond.not, label %14, label %16, !llvm.loop !617

.preheader:                                       ; preds = %14, %31
  %.570 = phi ptr [ %44, %31 ], [ %26, %14 ]
  %.05269 = phi i64 [ %32, %31 ], [ 0, %14 ]
  %28 = getelementptr inbounds nuw [6 x i8], ptr @__const.dequantize_row_tq1_0.pow3, i64 0, i64 %.05269
  %29 = load i8, ptr %28, align 1, !tbaa !13
  br label %33

.preheader60:                                     ; preds = %31
  %30 = getelementptr inbounds nuw i8, ptr %6, i64 48
  br label %.preheader57

31:                                               ; preds = %33
  %32 = add nuw nsw i64 %.05269, 1
  %exitcond83.not = icmp eq i64 %32, 5
  br i1 %exitcond83.not, label %.preheader60, label %.preheader, !llvm.loop !618

33:                                               ; preds = %.preheader, %33
  %.668 = phi ptr [ %.570, %.preheader ], [ %44, %33 ]
  %.05167 = phi i64 [ 0, %.preheader ], [ %45, %33 ]
  %34 = or disjoint i64 %.05167, 32
  %35 = getelementptr inbounds nuw [48 x i8], ptr %6, i64 0, i64 %34
  %36 = load i8, ptr %35, align 1, !tbaa !13
  %37 = mul i8 %29, %36
  %38 = zext i8 %37 to i32
  %39 = mul nuw nsw i32 %38, 3
  %40 = lshr i32 %39, 8
  %41 = add nsw i32 %40, -1
  %42 = sitofp i32 %41 to float
  %43 = fmul float %11, %42
  %44 = getelementptr inbounds nuw i8, ptr %.668, i64 4
  store float %43, ptr %.668, align 4, !tbaa !8
  %45 = add nuw nsw i64 %.05167, 1
  %exitcond82.not = icmp eq i64 %45, 16
  br i1 %exitcond82.not, label %31, label %33, !llvm.loop !619

.preheader57:                                     ; preds = %.preheader60, %50
  %.776 = phi ptr [ %44, %.preheader60 ], [ %62, %50 ]
  %.04975 = phi i64 [ 0, %.preheader60 ], [ %51, %50 ]
  %46 = getelementptr inbounds nuw [6 x i8], ptr @__const.dequantize_row_tq1_0.pow3, i64 0, i64 %.04975
  %47 = load i8, ptr %46, align 1, !tbaa !13
  br label %52

48:                                               ; preds = %50
  %49 = add nuw nsw i64 %.04777, 1
  %exitcond86.not = icmp eq i64 %49, %4
  br i1 %exitcond86.not, label %._crit_edge, label %.lr.ph, !llvm.loop !620

50:                                               ; preds = %52
  %51 = add nuw nsw i64 %.04975, 1
  %exitcond85.not = icmp eq i64 %51, 4
  br i1 %exitcond85.not, label %48, label %.preheader57, !llvm.loop !621

52:                                               ; preds = %.preheader57, %52
  %.874 = phi ptr [ %.776, %.preheader57 ], [ %62, %52 ]
  %.04873 = phi i64 [ 0, %.preheader57 ], [ %63, %52 ]
  %53 = getelementptr inbounds nuw [4 x i8], ptr %30, i64 0, i64 %.04873
  %54 = load i8, ptr %53, align 1, !tbaa !13
  %55 = mul i8 %47, %54
  %56 = zext i8 %55 to i32
  %57 = mul nuw nsw i32 %56, 3
  %58 = lshr i32 %57, 8
  %59 = add nsw i32 %58, -1
  %60 = sitofp i32 %59 to float
  %61 = fmul float %11, %60
  %62 = getelementptr inbounds nuw i8, ptr %.874, i64 4
  store float %61, ptr %.874, align 4, !tbaa !8
  %63 = add nuw nsw i64 %.04873, 1
  %exitcond84.not = icmp eq i64 %63, 4
  br i1 %exitcond84.not, label %50, label %52, !llvm.loop !622
}